; Function Attrs: mustprogress nounwind uwtable
define dso_local noundef zeroext i1 @_ZN4llvm11MCAsmParser13parseIntTokenERlRKNS_5TwineE(ptr noundef nonnull align 8 dereferenceable(34) %0, ptr nocapture noundef nonnull writeonly align 8 dereferenceable(8) %1, ptr noundef nonnull align 8 dereferenceable(34) %2) local_unnamed_addr #0 align 2 {
  %4 = load ptr, ptr %0, align 8
  %5 = getelementptr inbounds i8, ptr %4, i64 40
  %6 = load ptr, ptr %5, align 8
  %7 = tail call noundef nonnull align 8 dereferenceable(144) ptr %6(ptr noundef nonnull align 8 dereferenceable(34) %0) #13
  %8 = getelementptr inbounds nuw i8, ptr %7, i64 8
  %9 = load ptr, ptr %8, align 8
  %10 = load i32, ptr %9, align 8
  %.not = icmp ne i32 %10, 4
  %11 = load ptr, ptr %0, align 8
  %12 = getelementptr inbounds i8, ptr %11, i64 40
  %13 = load ptr, ptr %12, align 8
  %14 = tail call noundef nonnull align 8 dereferenceable(144) ptr %13(ptr noundef nonnull align 8 dereferenceable(34) %0) #13
  br i1 %.not, label %15, label %18

15:                                               ; preds = %3
  %16 = tail call ptr @_ZNK4llvm10MCAsmLexer6getLocEv(ptr noundef nonnull align 8 dereferenceable(144) %14) #13
  %17 = tail call noundef zeroext i1 @_ZN4llvm11MCAsmParser5ErrorENS_5SMLocERKNS_5TwineENS_7SMRangeE(ptr noundef nonnull align 8 dereferenceable(34) %0, ptr %16, ptr noundef nonnull align 8 dereferenceable(34) %2, ptr null, ptr null)
  br label %30

18:                                               ; preds = %3
  %19 = getelementptr inbounds nuw i8, ptr %14, i64 8
  %20 = load ptr, ptr %19, align 8
  %21 = getelementptr inbounds nuw i8, ptr %20, i64 24
  %22 = getelementptr inbounds i8, ptr %20, i64 32
  %23 = load i32, ptr %22, align 8
  %24 = icmp ult i32 %23, 65
  %25 = load ptr, ptr %21, align 8
  %.0.in.i.i = select i1 %24, ptr %21, ptr %25
  %.0.i.i = load i64, ptr %.0.in.i.i, align 8
  store i64 %.0.i.i, ptr %1, align 8
  %26 = load ptr, ptr %0, align 8
  %27 = getelementptr inbounds i8, ptr %26, i64 184
  %28 = load ptr, ptr %27, align 8
  %29 = tail call noundef nonnull align 8 dereferenceable(40) ptr %28(ptr noundef nonnull align 8 dereferenceable(34) %0) #13
  br label %30

30:                                               ; preds = %18, %15
  ret i1 %.not
}